target datalayout = "e-m:e-p270:32:32-p271:32:32-p272:64:64-i64:64-i128:128-f80:128-n8:16:32:64-S128"
target triple = "x86_64-pc-linux-gnu"

%"class.QMetaObject::Connection" = type { ptr }

@_ZTV13MLFloatSlider = external unnamed_addr constant { [55 x ptr], [10 x ptr] }, align 8
@.str.6 = private unnamed_addr constant [19 x i8] c"2valueChanged(int)\00", align 1
@.str.7 = private unnamed_addr constant [25 x i8] c"1notifyValueChanged(int)\00", align 1

; Function Attrs: mustprogress uwtable
define void @_ZN13MLFloatSliderC2EP7QWidget(ptr noundef nonnull align 8 dereferenceable(48) %0, ptr noundef %1) unnamed_addr #2 align 2 personality ptr @__gxx_personality_v0 {
  %3 = alloca ptr, align 8
  %4 = alloca ptr, align 8
  %5 = alloca %"class.QMetaObject::Connection", align 8
  %6 = alloca ptr, align 8
  %7 = alloca i32, align 4
  store ptr %0, ptr %3, align 8
  store ptr %1, ptr %4, align 8
  %8 = load ptr, ptr %3, align 8
  %9 = load ptr, ptr %4, align 8
  call void @_ZN7QSliderC2EP7QWidget(ptr noundef nonnull align 8 dereferenceable(48) %8, ptr noundef %9)
  store ptr getelementptr inbounds ({ [55 x ptr], [10 x ptr] }, ptr @_ZTV13MLFloatSlider, i32 0, i32 0, i32 2), ptr %8, align 8
  %10 = getelementptr inbounds i8, ptr %8, i64 16
  store ptr getelementptr inbounds ({ [55 x ptr], [10 x ptr] }, ptr @_ZTV13MLFloatSlider, i32 0, i32 1, i32 2), ptr %10, align 8
  invoke void @_ZN7QObject7connectEPKS_PKcS1_S3_N2Qt14ConnectionTypeE(ptr dead_on_unwind writable sret(%"class.QMetaObject::Connection") align 8 %5, ptr noundef %8, ptr noundef @.str.6, ptr noundef %8, ptr noundef @.str.7, i32 noundef 0)
          to label %11 unwind label %12

11:                                               ; preds = %2
  call void @_ZN11QMetaObject10ConnectionD1Ev(ptr noundef nonnull align 8 dereferenceable(8) %5) #9
  ret void

12:                                               ; preds = %2
  %13 = landingpad { ptr, i32 }
          cleanup
  %14 = extractvalue { ptr, i32 } %13, 0
  store ptr %14, ptr %6, align 8
  %15 = extractvalue { ptr, i32 } %13, 1
  store i32 %15, ptr %7, align 4
  call void @_ZN7QSliderD2Ev(ptr noundef nonnull align 8 dereferenceable(48) %8) #9
  br label %16

16:                                               ; preds = %12
  %17 = load ptr, ptr %6, align 8
  %18 = load i32, ptr %7, align 4
  %19 = insertvalue { ptr, i32 } poison, ptr %17, 0
  %20 = insertvalue { ptr, i32 } %19, i32 %18, 1
  resume { ptr, i32 } %20
}