; Function Attrs: mustprogress uwtable
define void @_ZN13MLFloatSliderC2EP7QWidget(ptr noundef nonnull align 8 dereferenceable(48) %0, ptr noundef %1) unnamed_addr #2 align 2 personality ptr @__gxx_personality_v0 {
  %3 = alloca %"class.QMetaObject::Connection", align 8
  tail call void @_ZN7QSliderC2EP7QWidget(ptr noundef nonnull align 8 dereferenceable(48) %0, ptr noundef %1)
  store ptr getelementptr inbounds ({ [55 x ptr], [10 x ptr] }, ptr @_ZTV13MLFloatSlider, i64 0, i32 0, i64 2), ptr %0, align 8
  %4 = getelementptr inbounds i8, ptr %0, i64 16
  store ptr getelementptr inbounds ({ [55 x ptr], [10 x ptr] }, ptr @_ZTV13MLFloatSlider, i64 0, i32 1, i64 2), ptr %4, align 8
  invoke void @_ZN7QObject7connectEPKS_PKcS1_S3_N2Qt14ConnectionTypeE(ptr dead_on_unwind nonnull writable sret(%"class.QMetaObject::Connection") align 8 %3, ptr noundef nonnull %0, ptr noundef nonnull @.str.6, ptr noundef nonnull %0, ptr noundef nonnull @.str.7, i32 noundef 0)
          to label %5 unwind label %6

5:                                                ; preds = %2
  call void @_ZN11QMetaObject10ConnectionD1Ev(ptr noundef nonnull align 8 dereferenceable(8) %3) #11
  ret void

6:                                                ; preds = %2
  %7 = landingpad { ptr, i32 }
          cleanup
  call void @_ZN7QSliderD2Ev(ptr noundef nonnull align 8 dereferenceable(48) %0) #11
  resume { ptr, i32 } %7
}